target datalayout = "e-m:e-p270:32:32-p271:32:32-p272:64:64-i64:64-i128:128-f80:128-n8:16:32:64-S128"
target triple = "x86_64-pc-linux-gnu"

%struct.Vec_Int_t_ = type { i32, i32, ptr }
%struct.Gia_Man_t_ = type { ptr, ptr, i32, i32, i32, i32, ptr, ptr, i32, i32, i32, ptr, ptr, %struct.Vec_Int_t_, %struct.Vec_Int_t_, i32, i32, i32, %struct.Vec_Int_t_, ptr, ptr, ptr, i32, i32, i32, i32, ptr, ptr, ptr, ptr, ptr, i32, i32, ptr, i32, ptr, ptr, ptr, ptr, ptr, ptr, ptr, ptr, ptr, ptr, ptr, ptr, ptr, ptr, ptr, ptr, ptr, ptr, %struct.Vec_Int_t_, %struct.Vec_Int_t_, ptr, ptr, ptr, ptr, ptr, ptr, ptr, ptr, ptr, ptr, ptr, ptr, ptr, ptr, ptr, ptr, ptr, ptr, ptr, ptr, ptr, i32, float, float, ptr, ptr, i32, ptr, ptr, ptr, ptr, ptr, ptr, ptr, ptr, ptr, ptr, ptr, ptr, ptr, ptr, ptr, i64, i64, ptr, ptr, i32, i32, i32, i32, i32, i32, i32, i32, i32, i32, i32, i32, ptr, ptr, ptr, ptr, ptr, ptr, ptr, ptr, i32, i32, i32, ptr, i32, i32, ptr, ptr, ptr, ptr, ptr, ptr, i32, i32, ptr, %struct.Vec_Int_t_, %struct.Vec_Int_t_, %struct.Vec_Int_t_, ptr, ptr, ptr, i32, i32, i32, i32, ptr, ptr, ptr, ptr, ptr }
%struct.Vec_Wrd_t_ = type { i32, i32, ptr }

@.str.18 = private unnamed_addr constant [92 x i8] c"The accuracy is %8.4f %% (%d out of %d output are correct, for example, output number %d).\0A\00", align 1

; Function Attrs: inlinehint nounwind uwtable
define internal i32 @Abc_TtGetBit(ptr noundef %0, i32 noundef %1) #3 {
  %3 = alloca ptr, align 8
  %4 = alloca i32, align 4
  store ptr %0, ptr %3, align 8, !tbaa !30
  store i32 %1, ptr %4, align 4, !tbaa !14
  %5 = load ptr, ptr %3, align 8, !tbaa !30
  %6 = load i32, ptr %4, align 4, !tbaa !14
  %7 = ashr i32 %6, 6
  %8 = sext i32 %7 to i64
  %9 = getelementptr inbounds i64, ptr %5, i64 %8
  %10 = load i64, ptr %9, align 8, !tbaa !79
  %11 = load i32, ptr %4, align 4, !tbaa !14
  %12 = and i32 %11, 63
  %13 = zext i32 %12 to i64
  %14 = lshr i64 %10, %13
  %15 = trunc i64 %14 to i32
  %16 = and i32 %15, 1
  ret i32 %16
}

; Function Attrs: inlinehint nounwind uwtable
define internal ptr @Vec_WrdEntryP(ptr noundef %0, i32 noundef %1) #3 {
  %3 = alloca ptr, align 8
  %4 = alloca i32, align 4
  store ptr %0, ptr %3, align 8, !tbaa !71
  store i32 %1, ptr %4, align 4, !tbaa !14
  %5 = load ptr, ptr %3, align 8, !tbaa !71
  %6 = getelementptr inbounds nuw %struct.Vec_Wrd_t_, ptr %5, i32 0, i32 2
  %7 = load ptr, ptr %6, align 8, !tbaa !78
  %8 = load i32, ptr %4, align 4, !tbaa !14
  %9 = sext i32 %8 to i64
  %10 = getelementptr inbounds i64, ptr %7, i64 %9
  ret ptr %10
}

; Function Attrs: nounwind uwtable
define i32 @Gia_ManSimEvalMaxValue(ptr noundef %0, i32 noundef %1, i32 noundef %2, i32 noundef %3, i32 noundef %4) #0 {
  %6 = alloca ptr, align 8
  %7 = alloca i32, align 4
  %8 = alloca i32, align 4
  %9 = alloca i32, align 4
  %10 = alloca i32, align 4
  %11 = alloca i32, align 4
  %12 = alloca i32, align 4
  %13 = alloca i32, align 4
  %14 = alloca i32, align 4
  %15 = alloca i32, align 4
  %16 = alloca ptr, align 8
  store ptr %0, ptr %6, align 8, !tbaa !71
  store i32 %1, ptr %7, align 4, !tbaa !14
  store i32 %2, ptr %8, align 4, !tbaa !14
  store i32 %3, ptr %9, align 4, !tbaa !14
  store i32 %4, ptr %10, align 4, !tbaa !14
  call void @llvm.lifetime.start.p0(i64 4, ptr %11) #13
  call void @llvm.lifetime.start.p0(i64 4, ptr %12) #13
  store i32 -1, ptr %12, align 4, !tbaa !14
  call void @llvm.lifetime.start.p0(i64 4, ptr %13) #13
  store i32 -1, ptr %13, align 4, !tbaa !14
  store i32 0, ptr %11, align 4, !tbaa !14
  br label %17

17:                                               ; preds = %57, %5
  %18 = load i32, ptr %11, align 4, !tbaa !14
  %19 = load i32, ptr %8, align 4, !tbaa !14
  %20 = icmp slt i32 %18, %19
  br i1 %20, label %21, label %60

21:                                               ; preds = %17
  call void @llvm.lifetime.start.p0(i64 4, ptr %14) #13
  call void @llvm.lifetime.start.p0(i64 4, ptr %15) #13
  store i32 0, ptr %15, align 4, !tbaa !14
  store i32 0, ptr %14, align 4, !tbaa !14
  br label %22

22:                                               ; preds = %46, %21
  %23 = load i32, ptr %14, align 4, !tbaa !14
  %24 = load i32, ptr %9, align 4, !tbaa !14
  %25 = icmp slt i32 %23, %24
  br i1 %25, label %26, label %49

26:                                               ; preds = %22
  call void @llvm.lifetime.start.p0(i64 8, ptr %16) #13
  %27 = load ptr, ptr %6, align 8, !tbaa !71
  %28 = load i32, ptr %11, align 4, !tbaa !14
  %29 = load i32, ptr %9, align 4, !tbaa !14
  %30 = mul nsw i32 %28, %29
  %31 = load i32, ptr %14, align 4, !tbaa !14
  %32 = add nsw i32 %30, %31
  %33 = load i32, ptr %7, align 4, !tbaa !14
  %34 = mul nsw i32 %32, %33
  %35 = call ptr @Vec_WrdEntryP(ptr noundef %27, i32 noundef %34)
  store ptr %35, ptr %16, align 8, !tbaa !30
  %36 = load ptr, ptr %16, align 8, !tbaa !30
  %37 = load i32, ptr %10, align 4, !tbaa !14
  %38 = call i32 @Abc_TtGetBit(ptr noundef %36, i32 noundef %37)
  %39 = icmp ne i32 %38, 0
  br i1 %39, label %40, label %45

40:                                               ; preds = %26
  %41 = load i32, ptr %14, align 4, !tbaa !14
  %42 = shl i32 1, %41
  %43 = load i32, ptr %15, align 4, !tbaa !14
  %44 = or i32 %43, %42
  store i32 %44, ptr %15, align 4, !tbaa !14
  br label %45

45:                                               ; preds = %40, %26
  call void @llvm.lifetime.end.p0(i64 8, ptr %16) #13
  br label %46

46:                                               ; preds = %45
  %47 = load i32, ptr %14, align 4, !tbaa !14
  %48 = add nsw i32 %47, 1
  store i32 %48, ptr %14, align 4, !tbaa !14
  br label %22, !llvm.loop !98

49:                                               ; preds = %22
  %50 = load i32, ptr %12, align 4, !tbaa !14
  %51 = load i32, ptr %15, align 4, !tbaa !14
  %52 = icmp sle i32 %50, %51
  br i1 %52, label %53, label %56

53:                                               ; preds = %49
  %54 = load i32, ptr %15, align 4, !tbaa !14
  store i32 %54, ptr %12, align 4, !tbaa !14
  %55 = load i32, ptr %11, align 4, !tbaa !14
  store i32 %55, ptr %13, align 4, !tbaa !14
  br label %56

56:                                               ; preds = %53, %49
  call void @llvm.lifetime.end.p0(i64 4, ptr %15) #13
  call void @llvm.lifetime.end.p0(i64 4, ptr %14) #13
  br label %57

57:                                               ; preds = %56
  %58 = load i32, ptr %11, align 4, !tbaa !14
  %59 = add nsw i32 %58, 1
  store i32 %59, ptr %11, align 4, !tbaa !14
  br label %17, !llvm.loop !99

60:                                               ; preds = %17
  %61 = load i32, ptr %13, align 4, !tbaa !14
  call void @llvm.lifetime.end.p0(i64 4, ptr %13) #13
  call void @llvm.lifetime.end.p0(i64 4, ptr %12) #13
  call void @llvm.lifetime.end.p0(i64 4, ptr %11) #13
  ret i32 %61
}

; Function Attrs: inlinehint nounwind uwtable
define internal i32 @Vec_IntEntry(ptr noundef %0, i32 noundef %1) #3 {
  %3 = alloca ptr, align 8
  %4 = alloca i32, align 4
  store ptr %0, ptr %3, align 8, !tbaa !16
  store i32 %1, ptr %4, align 4, !tbaa !14
  %5 = load ptr, ptr %3, align 8, !tbaa !16
  %6 = getelementptr inbounds nuw %struct.Vec_Int_t_, ptr %5, i32 0, i32 2
  %7 = load ptr, ptr %6, align 8, !tbaa !28
  %8 = load i32, ptr %4, align 4, !tbaa !14
  %9 = sext i32 %8 to i64
  %10 = getelementptr inbounds i32, ptr %7, i64 %9
  %11 = load i32, ptr %10, align 4, !tbaa !14
  ret i32 %11
}

; Function Attrs: inlinehint nounwind uwtable
define internal i32 @Vec_IntSize(ptr noundef %0) #3 {
  %2 = alloca ptr, align 8
  store ptr %0, ptr %2, align 8, !tbaa !16
  %3 = load ptr, ptr %2, align 8, !tbaa !16
  %4 = getelementptr inbounds nuw %struct.Vec_Int_t_, ptr %3, i32 0, i32 1
  %5 = load i32, ptr %4, align 4, !tbaa !25
  ret i32 %5
}

; Function Attrs: inlinehint nounwind uwtable
define internal i32 @Vec_WrdSize(ptr noundef %0) #3 {
  %2 = alloca ptr, align 8
  store ptr %0, ptr %2, align 8, !tbaa !71
  %3 = load ptr, ptr %2, align 8, !tbaa !71
  %4 = getelementptr inbounds nuw %struct.Vec_Wrd_t_, ptr %3, i32 0, i32 1
  %5 = load i32, ptr %4, align 4, !tbaa !76
  ret i32 %5
}

; Function Attrs: inlinehint nounwind uwtable
define internal i32 @Gia_ManCoNum(ptr noundef %0) #3 {
  %2 = alloca ptr, align 8
  store ptr %0, ptr %2, align 8, !tbaa !34
  %3 = load ptr, ptr %2, align 8, !tbaa !34
  %4 = getelementptr inbounds nuw %struct.Gia_Man_t_, ptr %3, i32 0, i32 12
  %5 = load ptr, ptr %4, align 8, !tbaa !58
  %6 = call i32 @Vec_IntSize(ptr noundef %5)
  ret i32 %6
}

; Function Attrs: nounwind uwtable
define i32 @Gia_ManSimEvalOne3(ptr noundef %0, ptr noundef %1, ptr noundef %2, i32 noundef %3) #0 {
  %5 = alloca ptr, align 8
  %6 = alloca ptr, align 8
  %7 = alloca ptr, align 8
  %8 = alloca i32, align 4
  %9 = alloca i32, align 4
  %10 = alloca i32, align 4
  %11 = alloca i32, align 4
  %12 = alloca i32, align 4
  %13 = alloca i32, align 4
  %14 = alloca i32, align 4
  store ptr %0, ptr %5, align 8, !tbaa !34
  store ptr %1, ptr %6, align 8, !tbaa !71
  store ptr %2, ptr %7, align 8, !tbaa !16
  store i32 %3, ptr %8, align 4, !tbaa !14
  call void @llvm.lifetime.start.p0(i64 4, ptr %9) #13
  call void @llvm.lifetime.start.p0(i64 4, ptr %10) #13
  call void @llvm.lifetime.start.p0(i64 4, ptr %11) #13
  %15 = load ptr, ptr %5, align 8, !tbaa !34
  %16 = call i32 @Gia_ManCoNum(ptr noundef %15)
  %17 = load i32, ptr %8, align 4, !tbaa !14
  %18 = sdiv i32 %16, %17
  store i32 %18, ptr %11, align 4, !tbaa !14
  call void @llvm.lifetime.start.p0(i64 4, ptr %12) #13
  store i32 -1, ptr %12, align 4, !tbaa !14
  call void @llvm.lifetime.start.p0(i64 4, ptr %13) #13
  store i32 0, ptr %13, align 4, !tbaa !14
  call void @llvm.lifetime.start.p0(i64 4, ptr %14) #13
  %19 = load ptr, ptr %6, align 8, !tbaa !71
  %20 = call i32 @Vec_WrdSize(ptr noundef %19)
  %21 = load ptr, ptr %5, align 8, !tbaa !34
  %22 = call i32 @Gia_ManCoNum(ptr noundef %21)
  %23 = sdiv i32 %20, %22
  store i32 %23, ptr %14, align 4, !tbaa !14
  store i32 0, ptr %9, align 4, !tbaa !14
  br label %24

24:                                               ; preds = %53, %4
  %25 = load i32, ptr %9, align 4, !tbaa !14
  %26 = load ptr, ptr %7, align 8, !tbaa !16
  %27 = call i32 @Vec_IntSize(ptr noundef %26)
  %28 = icmp slt i32 %25, %27
  br i1 %28, label %29, label %33

29:                                               ; preds = %24
  %30 = load ptr, ptr %7, align 8, !tbaa !16
  %31 = load i32, ptr %9, align 4, !tbaa !14
  %32 = call i32 @Vec_IntEntry(ptr noundef %30, i32 noundef %31)
  store i32 %32, ptr %10, align 4, !tbaa !14
  br label %33

33:                                               ; preds = %29, %24
  %34 = phi i1 [ false, %24 ], [ true, %29 ]
  br i1 %34, label %35, label %56

35:                                               ; preds = %33
  %36 = load i32, ptr %10, align 4, !tbaa !14
  %37 = load ptr, ptr %6, align 8, !tbaa !71
  %38 = load i32, ptr %14, align 4, !tbaa !14
  %39 = load i32, ptr %11, align 4, !tbaa !14
  %40 = load i32, ptr %8, align 4, !tbaa !14
  %41 = load i32, ptr %9, align 4, !tbaa !14
  %42 = call i32 @Gia_ManSimEvalMaxValue(ptr noundef %37, i32 noundef %38, i32 noundef %39, i32 noundef %40, i32 noundef %41)
  %43 = icmp eq i32 %36, %42
  br i1 %43, label %44, label %52

44:                                               ; preds = %35
  %45 = load i32, ptr %13, align 4, !tbaa !14
  %46 = add nsw i32 %45, 1
  store i32 %46, ptr %13, align 4, !tbaa !14
  %47 = load i32, ptr %12, align 4, !tbaa !14
  %48 = icmp eq i32 %47, -1
  br i1 %48, label %49, label %51

49:                                               ; preds = %44
  %50 = load i32, ptr %9, align 4, !tbaa !14
  store i32 %50, ptr %12, align 4, !tbaa !14
  br label %51

51:                                               ; preds = %49, %44
  br label %52

52:                                               ; preds = %51, %35
  br label %53

53:                                               ; preds = %52
  %54 = load i32, ptr %9, align 4, !tbaa !14
  %55 = add nsw i32 %54, 1
  store i32 %55, ptr %9, align 4, !tbaa !14
  br label %24, !llvm.loop !100

56:                                               ; preds = %33
  %57 = load i32, ptr %13, align 4, !tbaa !14
  %58 = sitofp i32 %57 to double
  %59 = fmul double 1.000000e+02, %58
  %60 = load ptr, ptr %7, align 8, !tbaa !16
  %61 = call i32 @Vec_IntSize(ptr noundef %60)
  %62 = sitofp i32 %61 to double
  %63 = fdiv double %59, %62
  %64 = load i32, ptr %13, align 4, !tbaa !14
  %65 = load ptr, ptr %7, align 8, !tbaa !16
  %66 = call i32 @Vec_IntSize(ptr noundef %65)
  %67 = load i32, ptr %12, align 4, !tbaa !14
  %68 = call i32 (ptr, ...) @printf(ptr noundef @.str.18, double noundef %63, i32 noundef %64, i32 noundef %66, i32 noundef %67)
  %69 = load i32, ptr %13, align 4, !tbaa !14
  call void @llvm.lifetime.end.p0(i64 4, ptr %14) #13
  call void @llvm.lifetime.end.p0(i64 4, ptr %13) #13
  call void @llvm.lifetime.end.p0(i64 4, ptr %12) #13
  call void @llvm.lifetime.end.p0(i64 4, ptr %11) #13
  call void @llvm.lifetime.end.p0(i64 4, ptr %10) #13
  call void @llvm.lifetime.end.p0(i64 4, ptr %9) #13
  ret i32 %69
}