; Function Attrs: nofree nounwind uwtable
define noundef i32 @Gia_ManSimEvalOne3(ptr noundef readonly captures(none) %0, ptr noundef readonly captures(none) %1, ptr noundef readonly captures(none) %2, i32 noundef %3) local_unnamed_addr #9 {
  %5 = getelementptr i8, ptr %0, i64 72
  %.val31 = load ptr, ptr %5, align 8, !tbaa !50
  %6 = getelementptr i8, ptr %.val31, i64 4
  %.val31.val = load i32, ptr %6, align 4, !tbaa !13
  %7 = sdiv i32 %.val31.val, %3
  %8 = getelementptr i8, ptr %2, i64 4
  %.val27 = load i32, ptr %8, align 4, !tbaa !13
  %9 = icmp sgt i32 %.val27, 0
  br i1 %9, label %.lr.ph, label %.critedge

.lr.ph:                                           ; preds = %4
  %10 = getelementptr i8, ptr %1, i64 4
  %.val29 = load i32, ptr %10, align 4, !tbaa !60
  %11 = sdiv i32 %.val29, %.val31.val
  %12 = getelementptr i8, ptr %2, i64 8
  %.val28 = load ptr, ptr %12, align 8, !tbaa !17
  %13 = icmp sgt i32 %7, 0
  %14 = getelementptr i8, ptr %1, i64 8
  %15 = sext i32 %11 to i64
  %16 = zext nneg i32 %3 to i64
  %wide.trip.count41.i = zext nneg i32 %7 to i64
  br i1 %13, label %.lr.ph.split.us, label %Gia_ManSimEvalMaxValue.exit.preheader

Gia_ManSimEvalMaxValue.exit.preheader:            ; preds = %.lr.ph
  %wide.trip.count = zext nneg i32 %.val27 to i64
  br label %Gia_ManSimEvalMaxValue.exit

.lr.ph.split.us:                                  ; preds = %.lr.ph
  %17 = icmp sgt i32 %3, 0
  %wide.trip.count54 = zext nneg i32 %.val27 to i64
  br i1 %17, label %.lr.ph.split.us.split.us, label %.preheader.lr.ph.i.us.preheader

.preheader.lr.ph.i.us.preheader:                  ; preds = %.lr.ph.split.us
  %18 = add nsw i32 %7, -1
  br label %.preheader.lr.ph.i.us

.lr.ph.split.us.split.us:                         ; preds = %.lr.ph.split.us
  %.val.us.i.us.us = load ptr, ptr %14, align 8, !tbaa !59
  br label %.preheader.lr.ph.i.us.us

.preheader.lr.ph.i.us.us:                         ; preds = %Gia_ManSimEvalMaxValue.exit.loopexit.us.us, %.lr.ph.split.us.split.us
  %indvars.iv51 = phi i64 [ %indvars.iv.next52, %Gia_ManSimEvalMaxValue.exit.loopexit.us.us ], [ 0, %.lr.ph.split.us.split.us ]
  %.02334.us.us = phi i32 [ %.1.us.us, %Gia_ManSimEvalMaxValue.exit.loopexit.us.us ], [ 0, %.lr.ph.split.us.split.us ]
  %.02433.us.us = phi i32 [ %.125.us.us, %Gia_ManSimEvalMaxValue.exit.loopexit.us.us ], [ -1, %.lr.ph.split.us.split.us ]
  %19 = getelementptr inbounds nuw i32, ptr %.val28, i64 %indvars.iv51
  %20 = load i32, ptr %19, align 4, !tbaa !12
  %21 = trunc nuw nsw i64 %indvars.iv51 to i32
  %22 = and i64 %indvars.iv51, 63
  %23 = shl nuw i64 1, %22
  %24 = lshr i64 %indvars.iv51, 6
  %25 = and i64 %24, 67108863
  %invariant.gep.us.i.us.us = getelementptr i64, ptr %.val.us.i.us.us, i64 %25
  br label %.preheader.us.i.us.us

.preheader.us.i.us.us:                            ; preds = %._crit_edge.us.i.us.us, %.preheader.lr.ph.i.us.us
  %indvars.iv38.i.us.us = phi i64 [ %indvars.iv.next39.i.us.us, %._crit_edge.us.i.us.us ], [ 0, %.preheader.lr.ph.i.us.us ]
  %.02131.us.i.us.us = phi i32 [ %spec.select27.us.i.us.us, %._crit_edge.us.i.us.us ], [ -1, %.preheader.lr.ph.i.us.us ]
  %.02330.us.i.us.us = phi i32 [ %spec.select.us.i.us.us, %._crit_edge.us.i.us.us ], [ -1, %.preheader.lr.ph.i.us.us ]
  %26 = mul nuw nsw i64 %indvars.iv38.i.us.us, %16
  br label %27

27:                                               ; preds = %27, %.preheader.us.i.us.us
  %indvars.iv.i.us.us = phi i64 [ 0, %.preheader.us.i.us.us ], [ %indvars.iv.next.i.us.us, %27 ]
  %.01929.us.i.us.us = phi i32 [ 0, %.preheader.us.i.us.us ], [ %.1.us.i.us.us, %27 ]
  %28 = add nuw nsw i64 %indvars.iv.i.us.us, %26
  %29 = mul nsw i64 %28, %15
  %gep.us.i.us.us = getelementptr i64, ptr %invariant.gep.us.i.us.us, i64 %29
  %30 = load i64, ptr %gep.us.i.us.us, align 8, !tbaa !62
  %31 = and i64 %30, %23
  %.not26.us.i.us.us = icmp eq i64 %31, 0
  %32 = trunc nuw nsw i64 %indvars.iv.i.us.us to i32
  %33 = shl nuw i32 1, %32
  %34 = select i1 %.not26.us.i.us.us, i32 0, i32 %33
  %.1.us.i.us.us = or i32 %34, %.01929.us.i.us.us
  %indvars.iv.next.i.us.us = add nuw nsw i64 %indvars.iv.i.us.us, 1
  %exitcond37.not.i.us.us = icmp eq i64 %indvars.iv.next.i.us.us, %16
  br i1 %exitcond37.not.i.us.us, label %._crit_edge.us.i.us.us, label %27, !llvm.loop !84

._crit_edge.us.i.us.us:                           ; preds = %27
  %.not.us.i.us.us = icmp sgt i32 %.02330.us.i.us.us, %.1.us.i.us.us
  %spec.select.us.i.us.us = tail call i32 @llvm.smax.i32(i32 %.02330.us.i.us.us, i32 %.1.us.i.us.us)
  %35 = trunc nuw nsw i64 %indvars.iv38.i.us.us to i32
  %spec.select27.us.i.us.us = select i1 %.not.us.i.us.us, i32 %.02131.us.i.us.us, i32 %35
  %indvars.iv.next39.i.us.us = add nuw nsw i64 %indvars.iv38.i.us.us, 1
  %exitcond42.not.i.us.us = icmp eq i64 %indvars.iv.next39.i.us.us, %wide.trip.count41.i
  br i1 %exitcond42.not.i.us.us, label %Gia_ManSimEvalMaxValue.exit.loopexit.us.us, label %.preheader.us.i.us.us, !llvm.loop !85

Gia_ManSimEvalMaxValue.exit.loopexit.us.us:       ; preds = %._crit_edge.us.i.us.us
  %36 = icmp eq i32 %20, %spec.select27.us.i.us.us
  %37 = icmp eq i32 %.02433.us.us, -1
  %38 = select i1 %36, i1 %37, i1 false
  %.125.us.us = select i1 %38, i32 %21, i32 %.02433.us.us
  %39 = zext i1 %36 to i32
  %.1.us.us = add nuw nsw i32 %.02334.us.us, %39
  %indvars.iv.next52 = add nuw nsw i64 %indvars.iv51, 1
  %exitcond55.not = icmp eq i64 %indvars.iv.next52, %wide.trip.count54
  br i1 %exitcond55.not, label %.critedge, label %.preheader.lr.ph.i.us.us, !llvm.loop !86

.preheader.lr.ph.i.us:                            ; preds = %.preheader.lr.ph.i.us.preheader, %.preheader.lr.ph.i.us
  %indvars.iv46 = phi i64 [ 0, %.preheader.lr.ph.i.us.preheader ], [ %indvars.iv.next47, %.preheader.lr.ph.i.us ]
  %.02334.us = phi i32 [ 0, %.preheader.lr.ph.i.us.preheader ], [ %.1.us, %.preheader.lr.ph.i.us ]
  %.02433.us = phi i32 [ -1, %.preheader.lr.ph.i.us.preheader ], [ %.125.us, %.preheader.lr.ph.i.us ]
  %40 = getelementptr inbounds nuw i32, ptr %.val28, i64 %indvars.iv46
  %41 = load i32, ptr %40, align 4, !tbaa !12
  %42 = icmp eq i32 %41, %18
  %43 = icmp eq i32 %.02433.us, -1
  %44 = select i1 %42, i1 %43, i1 false
  %45 = trunc nuw nsw i64 %indvars.iv46 to i32
  %.125.us = select i1 %44, i32 %45, i32 %.02433.us
  %46 = zext i1 %42 to i32
  %.1.us = add nuw nsw i32 %.02334.us, %46
  %indvars.iv.next47 = add nuw nsw i64 %indvars.iv46, 1
  %exitcond50.not = icmp eq i64 %indvars.iv.next47, %wide.trip.count54
  br i1 %exitcond50.not, label %.critedge, label %.preheader.lr.ph.i.us, !llvm.loop !86

Gia_ManSimEvalMaxValue.exit:                      ; preds = %Gia_ManSimEvalMaxValue.exit.preheader, %Gia_ManSimEvalMaxValue.exit
  %indvars.iv = phi i64 [ 0, %Gia_ManSimEvalMaxValue.exit.preheader ], [ %indvars.iv.next, %Gia_ManSimEvalMaxValue.exit ]
  %.02334 = phi i32 [ 0, %Gia_ManSimEvalMaxValue.exit.preheader ], [ %.1, %Gia_ManSimEvalMaxValue.exit ]
  %.02433 = phi i32 [ -1, %Gia_ManSimEvalMaxValue.exit.preheader ], [ %.125, %Gia_ManSimEvalMaxValue.exit ]
  %47 = getelementptr inbounds nuw i32, ptr %.val28, i64 %indvars.iv
  %48 = load i32, ptr %47, align 4, !tbaa !12
  %49 = icmp eq i32 %48, -1
  %50 = icmp eq i32 %.02433, -1
  %51 = select i1 %49, i1 %50, i1 false
  %52 = trunc nuw nsw i64 %indvars.iv to i32
  %.125 = select i1 %51, i32 %52, i32 %.02433
  %53 = zext i1 %49 to i32
  %.1 = add nuw nsw i32 %.02334, %53
  %indvars.iv.next = add nuw nsw i64 %indvars.iv, 1
  %exitcond.not = icmp eq i64 %indvars.iv.next, %wide.trip.count
  br i1 %exitcond.not, label %.critedge, label %Gia_ManSimEvalMaxValue.exit, !llvm.loop !86

.critedge:                                        ; preds = %Gia_ManSimEvalMaxValue.exit, %.preheader.lr.ph.i.us, %Gia_ManSimEvalMaxValue.exit.loopexit.us.us, %4
  %.024.lcssa = phi i32 [ -1, %4 ], [ %.125.us.us, %Gia_ManSimEvalMaxValue.exit.loopexit.us.us ], [ %.125.us, %.preheader.lr.ph.i.us ], [ %.125, %Gia_ManSimEvalMaxValue.exit ]
  %.023.lcssa = phi i32 [ 0, %4 ], [ %.1.us.us, %Gia_ManSimEvalMaxValue.exit.loopexit.us.us ], [ %.1.us, %.preheader.lr.ph.i.us ], [ %.1, %Gia_ManSimEvalMaxValue.exit ]
  %54 = uitofp nneg i32 %.023.lcssa to double
  %55 = fmul double %54, 1.000000e+02
  %56 = sitofp i32 %.val27 to double
  %57 = fdiv double %55, %56
  %58 = tail call i32 (ptr, ...) @printf(ptr noundef nonnull dereferenceable(1) @.str.18, double noundef %57, i32 noundef %.023.lcssa, i32 noundef %.val27, i32 noundef %.024.lcssa)
  ret i32 %.023.lcssa
}